; Function Attrs: mustprogress uwtable
define void @_ZN3gmx10TextWriterC2ERKSt10shared_ptrINS_16TextOutputStreamEE(ptr noundef nonnull writeonly align 8 captures(none) dereferenceable(8) %0, ptr noundef nonnull readonly align 8 captures(none) dereferenceable(16) %1) unnamed_addr #0 align 2 personality ptr @__gxx_personality_v0 {
  %3 = tail call noalias noundef nonnull dereferenceable(48) ptr @_Znwm(i64 noundef 48) #17
  %4 = load ptr, ptr %1, align 8, !tbaa !9
  store ptr %4, ptr %3, align 8, !tbaa !9
  %5 = getelementptr inbounds nuw i8, ptr %3, i64 8
  %6 = getelementptr inbounds nuw i8, ptr %1, i64 8
  %7 = load ptr, ptr %6, align 8, !tbaa !23
  store ptr %7, ptr %5, align 8, !tbaa !23
  %.not.i.i.i.i = icmp eq ptr %7, null
  br i1 %.not.i.i.i.i, label %_ZNSt10shared_ptrIN3gmx16TextOutputStreamEEC2ERKS2_.exit.i, label %8

8:                                                ; preds = %2
  %9 = getelementptr inbounds nuw i8, ptr %7, i64 8
  %10 = load i8, ptr @__libc_single_threaded, align 1, !tbaa !24
  %.not.i.i.i.i.i = icmp eq i8 %10, 0
  br i1 %.not.i.i.i.i.i, label %14, label %11

11:                                               ; preds = %8
  %12 = load i32, ptr %9, align 4, !tbaa !25
  %13 = add nsw i32 %12, 1
  store i32 %13, ptr %9, align 4, !tbaa !25
  br label %_ZNSt10shared_ptrIN3gmx16TextOutputStreamEEC2ERKS2_.exit.i

14:                                               ; preds = %8
  %15 = atomicrmw volatile add ptr %9, i32 1 acq_rel, align 4
  br label %_ZNSt10shared_ptrIN3gmx16TextOutputStreamEEC2ERKS2_.exit.i

_ZNSt10shared_ptrIN3gmx16TextOutputStreamEEC2ERKS2_.exit.i: ; preds = %14, %11, %2
  %16 = getelementptr inbounds nuw i8, ptr %3, i64 16
  invoke void @_ZN3gmx23TextLineWrapperSettingsC1Ev(ptr noundef nonnull align 4 dereferenceable(16) %16)
          to label %18 unwind label %.body

.body:                                            ; preds = %_ZNSt10shared_ptrIN3gmx16TextOutputStreamEEC2ERKS2_.exit.i
  %17 = landingpad { ptr, i32 }
          cleanup
  tail call void @_ZNSt12__shared_ptrIN3gmx16TextOutputStreamELN9__gnu_cxx12_Lock_policyE2EED2Ev(ptr noundef nonnull align 8 dereferenceable(41) %3) #16
  tail call void @_ZdlPvm(ptr noundef nonnull %3, i64 noundef 48) #20
  resume { ptr, i32 } %17

18:                                               ; preds = %_ZNSt10shared_ptrIN3gmx16TextOutputStreamEEC2ERKS2_.exit.i
  %19 = getelementptr inbounds nuw i8, ptr %3, i64 32
  store i32 2, ptr %19, align 8, !tbaa !26
  %20 = getelementptr inbounds nuw i8, ptr %3, i64 36
  store i32 0, ptr %20, align 4, !tbaa !32
  %21 = getelementptr inbounds nuw i8, ptr %3, i64 40
  store i8 0, ptr %21, align 8, !tbaa !33
  %22 = getelementptr inbounds nuw i8, ptr %3, i64 28
  store i8 1, ptr %22, align 4, !tbaa !34
  store ptr %3, ptr %0, align 8, !tbaa !4
  ret void
}